(dp1
I0
(dp2
S'function'
p3
S'spline'
p4
sS'low_sigma_clip'
p5
F1
sS'high_sigma_clip'
p6
F0.20000000000000001
sS'exclude'
p7
(lp8
sS'knot_spacing'
p9
I20
sS'order'
p10
I3
sS'max_iterations'
p11
I5
ssI1
(dp12
g3
g4
sg5
F1
sg6
F0.20000000000000001
sg7
(lp13
sg9
I20
sg10
I3
sg11
I5
ssI2
(dp14
g3
g4
sg5
F1
sg6
F0.20000000000000001
sg7
(lp15
(I3355
I3365
tp16
a(I3345
I3352
tp17
asg9
I20
sg10
I3
sg11
I5
ssI3
(dp18
g3
g4
sg5
F1
sg6
F0.20000000000000001
sg7
(lp19
(F3391.5
I3396
tp20
a(I3379
I3384
tp21
a(I3387
I3389
tp22
asg9
I20
sg10
I3
sg11
I5
ssI4
(dp23
g3
g4
sg5
F1
sg6
F0.20000000000000001
sg7
(lp24
(F3391.5
I3396
tp25
a(I3379
I3384
tp26
a(I3387
I3389
tp27
a(I3433
I3435
tp28
a(I3412
I3415
tp29
asg9
I20
sg10
I3
sg11
I5
ssI5
(dp30
g3
g4
sg5
F1
sg6
F0.20000000000000001
sg7
(lp31
sg9
I20
sg10
I3
sg11
I5
ssI6
(dp32
g3
g4
sg5
F1
sg6
F0.20000000000000001
sg7
(lp33
(I3482
I3485
tp34
a(I3490
I3492
tp35
a(I3493
F3494.5
tp36
a(I3496
I3499
tp37
a(F3500.5
F3501.5
tp38
asg9
I20
sg10
I3
sg11
I5
ssI7
(dp39
g3
g4
sg5
F1
sg6
F0.20000000000000001
sg7
(lp40
(F3500.5
F3501.5
tp41
a(I3526
F3527.5
tp42
asg9
I20
sg10
I3
sg11
I5
ssI8
(dp43
g3
g4
sg5
F1
sg6
F0.20000000000000001
sg7
(lp44
(I3565
I3567
tp45
a(F3580.5
I3582
tp46
a(I3585
I3587
tp47
asg9
I20
sg10
I3
sg11
I5
ssI9
(dp48
g3
g4
sg5
F1
sg6
F0.20000000000000001
sg7
(lp49
(F3580.5
I3582
tp50
a(I3585
F3587.5
tp51
a(F3601.5
F3602.5
tp52
a(I3618
I3620
tp53
asg9
I20
sg10
I3
sg11
I5
ssI10
(dp54
g3
g4
sg5
F1
sg6
F0.20000000000000001
sg7
(lp55
(I3618
I3620
tp56
a(I3630
I3632
tp57
a(I3642
I3643
tp58
a(I3647
F3648.5
tp59
a(I3651
F3652.5
tp60
asg9
I20
sg10
I3
sg11
I5
ssI11
(dp61
g3
g4
sg5
F1
sg6
F0.20000000000000001
sg7
(lp62
(I3642
I3643
tp63
a(I3647
F3648.5
tp64
a(I3651
F3652.5
tp65
a(I3669
I3672
tp66
a(I3676
I3677
tp67
a(I3686
F3688.5
tp68
a(I3690
I3693
tp69
a(I3695
I3700
tp70
asg9
I20
sg10
I3
sg11
I5
ssI12
(dp71
g3
g4
sg5
F1
sg6
F0.20000000000000001
sg7
(lp72
(I3686
F3688.5
tp73
a(I3690
I3693
tp74
a(I3695
I3700
tp75
a(I3702
I3706
tp76
a(I3709
I3714
tp77
a(I3719
I3725
tp78
a(I3730
I3740
tp79
asg9
I20
sg10
I3
sg11
I5
ssI13
(dp80
g3
g4
sg5
F1
sg6
F0.20000000000000001
sg7
(lp81
(I3709
I3714
tp82
a(I3719
I3725
tp83
a(F3725.5
I3728
tp84
a(I3730
I3740
tp85
a(I3745
I3756
tp86
a(I3764
I3777
tp87
asg9
I20
sg10
I3
sg11
I5
ssI14
(dp88
g3
g4
sg5
F1
sg6
F0.20000000000000001
sg7
(lp89
(I3745
I3756
tp90
a(I3763
I3779
tp91
a(I3792
I3803
tp92
a(I3819
I3821
tp93
asg9
I20
sg10
I3
sg11
I5
ssI15
(dp94
g3
g4
sg5
F1
sg6
F0.20000000000000001
sg7
(lp95
(I3792
I3803
tp96
a(I3819
I3821
tp97
a(I3831
I3842
tp98
asg9
I20
sg10
I3
sg11
I5
ssI16
(dp99
g3
g4
sg5
F1
sg6
F0.20000000000000001
sg7
(lp100
(I3831
I3842
tp101
a(I3871
I3874
tp102
a(I3882
I3896
tp103
asg9
I20
sg10
I3
sg11
I5
ssI17
(dp104
g3
g4
sg5
F1
sg6
F0.20000000000000001
sg7
(lp105
(I3871
I3874
tp106
a(I3882
I3896
tp107
a(I3905
I3907
tp108
a(I3920
I3924
tp109
a(I3925
I3945
tp110
asg9
I20
sg10
I3
sg11
I5
ssI18
(dp111
g3
g4
sg5
F1
sg6
F0.20000000000000001
sg7
(lp112
(I3920
I3924
tp113
a(I3925
I3945
tp114
a(I3961
I3979
tp115
asg9
I30
sg10
I3
sg11
I5
ssI19
(dp116
g3
g4
sg5
F1
sg6
F0.20000000000000001
sg7
(lp117
(I3961
I3979
tp118
a(I4004
I4006
tp119
asg9
I20
sg10
I3
sg11
I5
ssI20
(dp120
g3
g4
sg5
F1
sg6
F0.20000000000000001
sg7
(lp121
(I4004
I4006
tp122
a(I4030
I4035
tp123
a(I4045
F4046.5
tp124
asg9
I20
sg10
I3
sg11
I5
ssI21
(dp125
g3
g4
sg5
F1
sg6
F0.20000000000000001
sg7
(lp126
(I4095
I4110
tp127
asg9
I20
sg10
I3
sg11
I5
ssI22
(dp128
g3
g4
sg5
F1
sg6
F0.20000000000000001
sg7
(lp129
(I4095
I4110
tp130
a(I4131
I4136
tp131
a(I4143
I4144
tp132
asg9
I20
sg10
I3
sg11
I5
ssI23
(dp133
g3
g4
sg5
F1
sg6
F0.20000000000000001
sg7
(lp134
sg9
I15
sg10
I3
sg11
I5
ssI24
(dp135
g3
g4
sg5
F1
sg6
F0.20000000000000001
sg7
(lp136
sg9
I15
sg10
I3
sg11
I5
ssI25
(dp137
g3
g4
sg5
F1
sg6
F0.20000000000000001
sg7
(lp138
(I4298
I4316
tp139
a(I4322
I4327
tp140
asg9
I20
sg10
I3
sg11
I5
ssI26
(dp141
g3
g4
sg5
F1
sg6
F0.20000000000000001
sg7
(lp142
(I4298
I4316
tp143
a(I4322
I4327
tp144
a(F4335.5
F4346.5
tp145
a(F4350.5
I4354
tp146
asg9
I20
sg10
I3
sg11
I5
ssI27
(dp147
g3
g4
sg5
F1
sg6
F0.20000000000000001
sg7
(lp148
sg9
I20
sg10
I3
sg11
I5
ssI28
(dp149
g3
g4
sg5
F1
sg6
F0.20000000000000001
sg7
(lp150
(I4441
I4460
tp151
asg9
I20
sg10
I3
sg11
I5
ssI29
(dp152
g3
g4
sg5
F1
sg6
F0.20000000000000001
sg7
(lp153
(I4499
I4517
tp154
asg9
I20
sg10
I3
sg11
I5
ssI30
(dp155
g3
g4
sg5
F1
sg6
F0.20000000000000001
sg7
(lp156
(I4556
I4576
tp157
asg9
I23
sg10
I3
sg11
I5
ssI31
(dp158
g3
g4
sg5
F1
sg6
F0.20000000000000001
sg7
(lp159
(I4616
I4635
tp160
asg9
I23
sg10
I3
sg11
I5
ssI32
(dp161
g3
g4
sg5
F1
sg6
F0.20000000000000001
sg7
(lp162
sg9
I15
sg10
I3
sg11
I5
ssI33
(dp163
g3
g4
sg5
F1
sg6
F0.20000000000000001
sg7
(lp164
(I4854
I4869
tp165
asg9
I10
sg10
I3
sg11
I5
ssI34
(dp166
g3
g4
sg5
F1
sg6
F0.20000000000000001
sg7
(lp167
(I4856
I4869
tp168
asg9
I15
sg10
I3
sg11
I5
ssI35
(dp169
g3
g4
sg5
F1
sg6
F0.20000000000000001
sg7
(lp170
sg9
I15
sg10
I3
sg11
I5
ssI36
(dp171
g3
g4
sg5
F1
sg6
F0.20000000000000001
sg7
(lp172
sg9
I15
sg10
I3
sg11
I5
ssI37
(dp173
g3
g4
sg5
F1
sg6
F0.20000000000000001
sg7
(lp174
(I5165
I5175
tp175
asg9
I15
sg10
I3
sg11
I5
ssI38
(dp176
g3
g4
sg5
F1
sg6
F0.20000000000000001
sg7
(lp177
(I5165
I5175
tp178
a(I5182
I5185
tp179
a(I5226
I5228
tp180
a(I5269
I5271
tp181
asg9
I15
sg10
I3
sg11
I5
ssI39
(dp182
g3
g4
sg5
F1
sg6
F0.20000000000000001
sg7
(lp183
(I5226
I5228
tp184
a(I5269
I5271
tp185
asg9
I12
sg10
I3
sg11
I5
ssI40
(dp186
g3
g4
sg5
F1
sg6
F0.20000000000000001
sg7
(lp187
(I5327
I5330
tp188
asg9
I12
sg10
I3
sg11
I5
ssI41
(dp189
g3
g4
sg5
F1
sg6
F0.20000000000000001
sg7
(lp190
sg9
I12
sg10
I3
sg11
I5
ssI42
(dp191
g3
g4
sg5
F1
sg6
F0.20000000000000001
sg7
(lp192
sg9
I12
sg10
I3
sg11
I5
ssI43
(dp193
g3
g4
sg5
F1
sg6
F0.20000000000000001
sg7
(lp194
sg9
I12
sg10
I3
sg11
I5
ssI44
(dp195
g3
g4
sg5
F1
sg6
F0.20000000000000001
sg7
(lp196
sg9
I10
sg10
I3
sg11
I5
ssI45
(dp197
g3
g4
sg5
F1
sg6
F0.20000000000000001
sg7
(lp198
(I5886
I5898
tp199
asg9
I15
sg10
I3
sg11
I5
ssI46
(dp200
g3
g4
sg5
F1
sg6
F0.20000000000000001
sg7
(lp201
(I5886
I5898
tp202
asg9
I15
sg10
I3
sg11
I5
ssI47
(dp203
g3
g4
sg5
F1
sg6
F0.20000000000000001
sg7
(lp204
sg9
I10
sg10
I3
sg11
I5
ssI48
(dp205
g3
g4
sg5
F1
sg6
F0.20000000000000001
sg7
(lp206
sg9
I10
sg10
I3
sg11
I5
ssI49
(dp207
g3
g4
sg5
F1
sg6
F0.20000000000000001
sg7
(lp208
sg9
I10
sg10
I3
sg11
I5
ssI50
(dp209
g3
g4
sg5
F1
sg6
F0.20000000000000001
sg7
(lp210
sg9
I10
sg10
I3
sg11
I5
ssI51
(dp211
g3
g4
sg5
F1
sg6
F0.20000000000000001
sg7
(lp212
(I6557
I6569
tp213
asg9
I15
sg10
I3
sg11
I5
ssI52
(dp214
g3
g4
sg5
F1
sg6
F0.20000000000000001
sg7
(lp215
(I6557
I6569
tp216
asg9
I15
sg10
I3
sg11
I5
ssI53
(dp217
g3
g4
sg5
F1
sg6
F0.20000000000000001
sg7
(lp218
sg9
I10
sg10
I3
sg11
I5
ssI54
(dp219
g3
g4
sg5
F1
sg6
F0.20000000000000001
sg7
(lp220
(I6860
I6884
tp221
asg9
I30
sg10
I3
sg11
I5
ssI55
(dp222
g3
g4
sg5
F1
sg6
F0.20000000000000001
sg7
(lp223
sg9
I20
sg10
I3
sg11
I5
ssI56
(dp224
g3
g4
sg5
F1
sg6
F0.20000000000000001
sg7
(lp225
(I7170
I7210
tp226
asg9
I30
sg10
I3
sg11
I5
ssI57
(dp227
g3
g4
sg5
F1
sg6
F0.20000000000000001
sg7
(lp228
(I4676
I4696
tp229
asg9
I25
sg10
I3
sg11
I5
ssI58
(dp230
g3
g4
sg5
F1
sg6
F0.20000000000000001
sg7
(lp231
sg9
I5
sg10
I3
sg11
I5
ssI59
(dp232
g3
g4
sg5
F1
sg6
F0.20000000000000001
sg7
(lp233
(I4548
I4551
tp234
asg9
I10
sg10
I3
sg11
I5
ssI60
(dp235
g3
g4
sg5
F1
sg6
F0.20000000000000001
sg7
(lp236
sg9
I12
sg10
I2
sg11
I5
ssI61
(dp237
g3
g4
sg5
F1
sg6
F0.20000000000000001
sg7
(lp238
sg9
I12
sg10
I2
sg11
I5
ssI62
(dp239
g3
g4
sg5
F1
sg6
F0.20000000000000001
sg7
(lp240
(F3346.5
F3347.5
tp241
a(F3348.5
I3350
tp242
a(I3357
I3362
tp243
a(F3367.5
I3375
tp244
a(F3379.5
I3381
tp245
asg9
I10
sg10
I2
sg11
I5
ssI63
(dp246
g3
g4
sg5
F1
sg6
F0.20000000000000001
sg7
(lp247
(I4738
I4757
tp248
asg9
I22
sg10
I3
sg11
I5
ssI64
(dp249
g3
g4
sg5
F1
sg6
F0.20000000000000001
sg7
(lp250
(I4854
I4868
tp251
asg9
I22
sg10
I3
sg11
I5
ssI65
(dp252
g3
g4
sg5
F1
sg6
F0.20000000000000001
sg7
(lp253
(I4854
I4868
tp254
asg9
I22
sg10
I3
sg11
I5
ssI66
(dp255
g3
g4
sg5
F1
sg6
F0.20000000000000001
sg7
(lp256
(I4942
I4959
tp257
asg9
I22
sg10
I3
sg11
I5
ssI67
(dp258
g3
g4
sg5
F1
sg6
F0.20000000000000001
sg7
(lp259
(I5020
I5030
tp260
asg9
I15
sg10
I3
sg11
I5
ssI68
(dp261
g3
g4
sg5
F1
sg6
F0.20000000000000001
sg7
(lp262
(I5070
I5101
tp263
asg9
I30
sg10
I3
sg11
I5
ssI69
(dp264
g3
g4
sg5
F1
sg6
F0.20000000000000001
sg7
(lp265
sg9
I30
sg10
I3
sg11
I5
ssI70
(dp266
g3
g4
sg5
F1
sg6
F0.20000000000000001
sg7
(lp267
sg9
I30
sg10
I3
sg11
I5
ssI71
(dp268
g3
g4
sg5
F1
sg6
F0.20000000000000001
sg7
(lp269
(I7590
I7616
tp270
a(I7620
I7644
tp271
asg9
I15
sg10
I3
sg11
I5
ssI72
(dp272
g3
g4
sg5
F1
sg6
F0.20000000000000001
sg7
(lp273
sg9
I15
sg10
I3
sg11
I5
ssI73
(dp274
g3
g4
sg5
F1
sg6
F0.20000000000000001
sg7
(lp275
sg9
I15
sg10
I3
sg11
I5
ssI74
(dp276
g3
g4
sg5
F1
sg6
F0.20000000000000001
sg7
(lp277
(I8218
I8234
tp278
asg9
I20
sg10
I3
sg11
I5
ssI75
(dp279
g3
g4
sg5
F1
sg6
F0.20000000000000001
sg7
(lp280
(I8496
I8499
tp281
asg9
I20
sg10
I3
sg11
I5
ssI76
(dp282
g3
g4
sg5
F1
sg6
F0.20000000000000001
sg7
(lp283
(I8496
I8500
tp284
a(I8538
I8546
tp285
a(I8658
I8666
tp286
asg9
I20
sg10
I3
sg11
I5
ssI77
(dp287
g3
g4
sg5
F1
sg6
F0.20000000000000001
sg7
(lp288
(I8496
I8500
tp289
a(I8538
I8546
tp290
a(I8658
I8666
tp291
asg9
I20
sg10
I3
sg11
I5
ssI78
(dp292
g3
g4
sg5
F1
sg6
F0.20000000000000001
sg7
(lp293
sg9
I30
sg10
I2
sg11
I5
ssI79
(dp294
g3
g4
sg5
F1
sg6
F0.20000000000000001
sg7
(lp295
sg9
I30
sg10
I2
sg11
I5
ssI80
(dp296
g3
g4
sg5
F1
sg6
F0.20000000000000001
sg7
(lp297
(I4857
I4866
tp298
asg9
I15
sg10
I2
sg11
I5
ssI81
(dp299
g3
g4
sg5
F1
sg6
F0.20000000000000001
sg7
(lp300
sg9
I15
sg10
I2
sg11
I5
ssI82
(dp301
g3
g4
sg5
F1
sg6
F0.20000000000000001
sg7
(lp302
sg9
I15
sg10
I2
sg11
I5
ssI83
(dp303
g3
g4
sg5
F1
sg6
F0.20000000000000001
sg7
(lp304
sg9
I15
sg10
I2
sg11
I5
ssI84
(dp305
g3
g4
sg5
F1
sg6
F0.20000000000000001
sg7
(lp306
sg9
I15
sg10
I2
sg11
I5
ss.